target datalayout = "e-m:e-p270:32:32-p271:32:32-p272:64:64-i64:64-i128:128-f80:128-n8:16:32:64-S128"
target triple = "x86_64-pc-linux-gnu"

%"class.Imath_3_2::Box" = type { %"class.Imath_3_2::Vec2.0", %"class.Imath_3_2::Vec2.0" }
%"class.Imath_3_2::Vec2.0" = type { i32, i32 }
%"class.Imf_3_4::Attribute" = type { ptr }
%"class.Imf_3_4::TypedAttribute.8" = type { %"class.Imf_3_4::Attribute", %"class.Imath_3_2::Box" }

@_ZTISt9exception = external constant ptr
@_ZN12_GLOBAL__N_112errorMessageE = internal global [1024 x i8] zeroinitializer, align 16
@_ZTIN7Imf_3_49AttributeE = external constant ptr
@.str = private unnamed_addr constant [27 x i8] c"Unexpected attribute type.\00", align 1
@_ZTIN7Iex_3_47TypeExcE = external constant ptr
@_ZTIN7Imf_3_414TypedAttributeIN9Imath_3_23BoxINS1_4Vec2IiEEEEEE = external constant ptr

; Function Attrs: noinline noreturn nounwind uwtable
define linkonce_odr hidden void @__clang_call_terminate(ptr noundef %0) #11 comdat {
  %2 = call ptr @__cxa_begin_catch(ptr %0) #3
  call void @_ZSt9terminatev() #18
  unreachable
}

; Function Attrs: mustprogress nounwind uwtable
define internal void @_ZN12_GLOBAL__N_115setErrorMessageERKSt9exception(ptr noundef nonnull align 8 dereferenceable(8) %0) #4 {
  %2 = alloca ptr, align 8
  store ptr %0, ptr %2, align 8, !tbaa !23
  %3 = load ptr, ptr %2, align 8, !tbaa !23
  %4 = load ptr, ptr %3, align 8, !tbaa !30
  %5 = getelementptr inbounds ptr, ptr %4, i64 2
  %6 = load ptr, ptr %5, align 8
  %7 = call noundef ptr %6(ptr noundef nonnull align 8 dereferenceable(8) %3) #3
  %8 = call ptr @strncpy(ptr noundef @_ZN12_GLOBAL__N_112errorMessageE, ptr noundef %7, i64 noundef 1023) #3
  store i8 0, ptr getelementptr inbounds ([1024 x i8], ptr @_ZN12_GLOBAL__N_112errorMessageE, i64 0, i64 1023), align 1, !tbaa !32
  ret void
}

; Function Attrs: inlinehint mustprogress nounwind uwtable
define available_externally noundef nonnull align 4 dereferenceable(16) ptr @_ZNK7Imf_3_414TypedAttributeIN9Imath_3_23BoxINS1_4Vec2IiEEEEE5valueEv(ptr noundef nonnull align 8 dereferenceable(24) %0) #6 align 2 {
  %2 = alloca ptr, align 8
  store ptr %0, ptr %2, align 8, !tbaa !82
  %3 = load ptr, ptr %2, align 8
  %4 = getelementptr inbounds nuw %"class.Imf_3_4::TypedAttribute.8", ptr %3, i32 0, i32 1
  ret ptr %4
}

; Function Attrs: mustprogress uwtable
define linkonce_odr noundef nonnull align 8 dereferenceable(24) ptr @_ZNK7Imf_3_46Header14typedAttributeINS_14TypedAttributeIN9Imath_3_23BoxINS3_4Vec2IiEEEEEEEERKT_PKc(ptr noundef nonnull align 8 dereferenceable(49) %0, ptr noundef %1) #7 comdat align 2 personality ptr @__gxx_personality_v0 {
  %3 = alloca ptr, align 8
  %4 = alloca ptr, align 8
  %5 = alloca ptr, align 8
  %6 = alloca ptr, align 8
  %7 = alloca ptr, align 8
  %8 = alloca i32, align 4
  store ptr %0, ptr %3, align 8, !tbaa !59
  store ptr %1, ptr %4, align 8, !tbaa !53
  %9 = load ptr, ptr %3, align 8
  call void @llvm.lifetime.start.p0(i64 8, ptr %5) #3
  %10 = load ptr, ptr %4, align 8, !tbaa !53
  %11 = call noundef nonnull align 8 dereferenceable(8) ptr @_ZNK7Imf_3_46HeaderixEPKc(ptr noundef nonnull align 8 dereferenceable(49) %9, ptr noundef %10)
  store ptr %11, ptr %5, align 8, !tbaa !61
  call void @llvm.lifetime.start.p0(i64 8, ptr %6) #3
  %12 = load ptr, ptr %5, align 8, !tbaa !61
  %13 = icmp eq ptr %12, null
  br i1 %13, label %16, label %14

14:                                               ; preds = %2
  %15 = call ptr @__dynamic_cast(ptr %12, ptr @_ZTIN7Imf_3_49AttributeE, ptr @_ZTIN7Imf_3_414TypedAttributeIN9Imath_3_23BoxINS1_4Vec2IiEEEEEE, i64 0) #3
  br label %17

16:                                               ; preds = %2
  br label %17

17:                                               ; preds = %16, %14
  %18 = phi ptr [ %15, %14 ], [ null, %16 ]
  store ptr %18, ptr %6, align 8, !tbaa !82
  %19 = load ptr, ptr %6, align 8, !tbaa !82
  %20 = icmp eq ptr %19, null
  br i1 %20, label %21, label %28

21:                                               ; preds = %17
  %22 = call ptr @__cxa_allocate_exception(i64 72) #3
  invoke void @_ZN7Iex_3_47TypeExcC1EPKc(ptr noundef nonnull align 8 dereferenceable(72) %22, ptr noundef @.str)
          to label %23 unwind label %24

23:                                               ; preds = %21
  call void @__cxa_throw(ptr %22, ptr @_ZTIN7Iex_3_47TypeExcE, ptr @_ZN7Iex_3_47TypeExcD1Ev) #21
  unreachable

24:                                               ; preds = %21
  %25 = landingpad { ptr, i32 }
          cleanup
  %26 = extractvalue { ptr, i32 } %25, 0
  store ptr %26, ptr %7, align 8
  %27 = extractvalue { ptr, i32 } %25, 1
  store i32 %27, ptr %8, align 4
  call void @__cxa_free_exception(ptr %22) #3
  call void @llvm.lifetime.end.p0(i64 8, ptr %6) #3
  call void @llvm.lifetime.end.p0(i64 8, ptr %5) #3
  br label %30

28:                                               ; preds = %17
  %29 = load ptr, ptr %6, align 8, !tbaa !82
  call void @llvm.lifetime.end.p0(i64 8, ptr %6) #3
  call void @llvm.lifetime.end.p0(i64 8, ptr %5) #3
  ret ptr %29

30:                                               ; preds = %24
  %31 = load ptr, ptr %7, align 8
  %32 = load i32, ptr %8, align 4
  %33 = insertvalue { ptr, i32 } poison, ptr %31, 0
  %34 = insertvalue { ptr, i32 } %33, i32 %32, 1
  resume { ptr, i32 } %34
}

; Function Attrs: inlinehint mustprogress nounwind uwtable
define internal noundef ptr @_ZN12_GLOBAL__N_16headerEPK9ImfHeader(ptr noundef %0) #6 {
  %2 = alloca ptr, align 8
  store ptr %0, ptr %2, align 8, !tbaa !33
  %3 = load ptr, ptr %2, align 8, !tbaa !33
  ret ptr %3
}

; Function Attrs: mustprogress uwtable
define i32 @ImfHeaderBox2iAttribute(ptr noundef %0, ptr noundef %1, ptr noundef %2, ptr noundef %3, ptr noundef %4, ptr noundef %5) #7 personality ptr @__gxx_personality_v0 {
  %7 = alloca i32, align 4
  %8 = alloca ptr, align 8
  %9 = alloca ptr, align 8
  %10 = alloca ptr, align 8
  %11 = alloca ptr, align 8
  %12 = alloca ptr, align 8
  %13 = alloca ptr, align 8
  %14 = alloca ptr, align 8
  %15 = alloca ptr, align 8
  %16 = alloca i32, align 4
  %17 = alloca ptr, align 8
  store ptr %0, ptr %8, align 8, !tbaa !33
  store ptr %1, ptr %9, align 8, !tbaa !53
  store ptr %2, ptr %10, align 8, !tbaa !42
  store ptr %3, ptr %11, align 8, !tbaa !42
  store ptr %4, ptr %12, align 8, !tbaa !42
  store ptr %5, ptr %13, align 8, !tbaa !42
  call void @llvm.lifetime.start.p0(i64 8, ptr %14) #3
  %18 = load ptr, ptr %8, align 8, !tbaa !33
  %19 = invoke noundef ptr @_ZN12_GLOBAL__N_16headerEPK9ImfHeader(ptr noundef %18)
          to label %20 unwind label %46

20:                                               ; preds = %6
  %21 = load ptr, ptr %9, align 8, !tbaa !53
  %22 = invoke noundef nonnull align 8 dereferenceable(24) ptr @_ZNK7Imf_3_46Header14typedAttributeINS_14TypedAttributeIN9Imath_3_23BoxINS3_4Vec2IiEEEEEEEERKT_PKc(ptr noundef nonnull align 8 dereferenceable(49) %19, ptr noundef %21)
          to label %23 unwind label %46

23:                                               ; preds = %20
  %24 = invoke noundef nonnull align 4 dereferenceable(16) ptr @_ZNK7Imf_3_414TypedAttributeIN9Imath_3_23BoxINS1_4Vec2IiEEEEE5valueEv(ptr noundef nonnull align 8 dereferenceable(24) %22)
          to label %25 unwind label %46

25:                                               ; preds = %23
  store ptr %24, ptr %14, align 8, !tbaa !40
  %26 = load ptr, ptr %14, align 8, !tbaa !40
  %27 = getelementptr inbounds nuw %"class.Imath_3_2::Box", ptr %26, i32 0, i32 0
  %28 = getelementptr inbounds nuw %"class.Imath_3_2::Vec2.0", ptr %27, i32 0, i32 0
  %29 = load i32, ptr %28, align 4, !tbaa !44
  %30 = load ptr, ptr %10, align 8, !tbaa !42
  store i32 %29, ptr %30, align 4, !tbaa !16
  %31 = load ptr, ptr %14, align 8, !tbaa !40
  %32 = getelementptr inbounds nuw %"class.Imath_3_2::Box", ptr %31, i32 0, i32 0
  %33 = getelementptr inbounds nuw %"class.Imath_3_2::Vec2.0", ptr %32, i32 0, i32 1
  %34 = load i32, ptr %33, align 4, !tbaa !46
  %35 = load ptr, ptr %11, align 8, !tbaa !42
  store i32 %34, ptr %35, align 4, !tbaa !16
  %36 = load ptr, ptr %14, align 8, !tbaa !40
  %37 = getelementptr inbounds nuw %"class.Imath_3_2::Box", ptr %36, i32 0, i32 1
  %38 = getelementptr inbounds nuw %"class.Imath_3_2::Vec2.0", ptr %37, i32 0, i32 0
  %39 = load i32, ptr %38, align 4, !tbaa !47
  %40 = load ptr, ptr %12, align 8, !tbaa !42
  store i32 %39, ptr %40, align 4, !tbaa !16
  %41 = load ptr, ptr %14, align 8, !tbaa !40
  %42 = getelementptr inbounds nuw %"class.Imath_3_2::Box", ptr %41, i32 0, i32 1
  %43 = getelementptr inbounds nuw %"class.Imath_3_2::Vec2.0", ptr %42, i32 0, i32 1
  %44 = load i32, ptr %43, align 4, !tbaa !48
  %45 = load ptr, ptr %13, align 8, !tbaa !42
  store i32 %44, ptr %45, align 4, !tbaa !16
  store i32 1, ptr %7, align 4
  call void @llvm.lifetime.end.p0(i64 8, ptr %14) #3
  br label %65

46:                                               ; preds = %23, %20, %6
  %47 = landingpad { ptr, i32 }
          cleanup
          catch ptr @_ZTISt9exception
  %48 = extractvalue { ptr, i32 } %47, 0
  store ptr %48, ptr %15, align 8
  %49 = extractvalue { ptr, i32 } %47, 1
  store i32 %49, ptr %16, align 4
  call void @llvm.lifetime.end.p0(i64 8, ptr %14) #3
  br label %50

50:                                               ; preds = %46
  %51 = load i32, ptr %16, align 4
  %52 = call i32 @llvm.eh.typeid.for.p0(ptr @_ZTISt9exception) #3
  %53 = icmp eq i32 %51, %52
  br i1 %53, label %54, label %67

54:                                               ; preds = %50
  call void @llvm.lifetime.start.p0(i64 8, ptr %17) #3
  %55 = load ptr, ptr %15, align 8
  %56 = call ptr @__cxa_begin_catch(ptr %55) #3
  store ptr %56, ptr %17, align 8
  %57 = load ptr, ptr %17, align 8, !tbaa !23
  invoke void @_ZN12_GLOBAL__N_115setErrorMessageERKSt9exception(ptr noundef nonnull align 8 dereferenceable(8) %57)
          to label %58 unwind label %59

58:                                               ; preds = %54
  store i32 0, ptr %7, align 4
  call void @__cxa_end_catch()
  call void @llvm.lifetime.end.p0(i64 8, ptr %17) #3
  br label %65

59:                                               ; preds = %54
  %60 = landingpad { ptr, i32 }
          cleanup
  %61 = extractvalue { ptr, i32 } %60, 0
  store ptr %61, ptr %15, align 8
  %62 = extractvalue { ptr, i32 } %60, 1
  store i32 %62, ptr %16, align 4
  invoke void @__cxa_end_catch()
          to label %63 unwind label %72

63:                                               ; preds = %59
  call void @llvm.lifetime.end.p0(i64 8, ptr %17) #3
  br label %67

64:                                               ; No predecessors!
  unreachable

65:                                               ; preds = %58, %25
  %66 = load i32, ptr %7, align 4
  ret i32 %66

67:                                               ; preds = %63, %50
  %68 = load ptr, ptr %15, align 8
  %69 = load i32, ptr %16, align 4
  %70 = insertvalue { ptr, i32 } poison, ptr %68, 0
  %71 = insertvalue { ptr, i32 } %70, i32 %69, 1
  resume { ptr, i32 } %71

72:                                               ; preds = %59
  %73 = landingpad { ptr, i32 }
          catch ptr null
  %74 = extractvalue { ptr, i32 } %73, 0
  call void @__clang_call_terminate(ptr %74) #18
  unreachable
}